; ModuleID = '7/1134.c'
source_filename = "7/1134.c"
target datalayout = "e-m:e-p270:32:32-p271:32:32-p272:64:64-i64:64-f80:128-n8:16:32:64-S128"
target triple = "x86_64-pc-linux-gnu"

@.str = private unnamed_addr constant [9 x i8] c"%s %s %s\00", align 1
@.str.1 = private unnamed_addr constant [4 x i8] c"%s\0A\00", align 1

; Function Attrs: noinline nounwind uwtable
define dso_local i32 @main() #0 {
  %1 = alloca i32, align 4
  %2 = alloca [256 x i8], align 16
  %3 = alloca [256 x i8], align 16
  %4 = alloca [256 x i8], align 16
  %5 = alloca i32, align 4
  store i32 0, i32* %1, align 4
  %6 = getelementptr inbounds [256 x i8], [256 x i8]* %2, i64 0, i64 0
  %7 = getelementptr inbounds [256 x i8], [256 x i8]* %3, i64 0, i64 0
  %8 = getelementptr inbounds [256 x i8], [256 x i8]* %4, i64 0, i64 0
  %9 = call i32 (i8*, ...) @__isoc99_scanf(i8* getelementptr inbounds ([9 x i8], [9 x i8]* @.str, i64 0, i64 0), i8* %6, i8* %7, i8* %8)
  %10 = getelementptr inbounds [256 x i8], [256 x i8]* %2, i64 0, i64 0
  %11 = getelementptr inbounds [256 x i8], [256 x i8]* %3, i64 0, i64 0
  %12 = call i8* @strstr(i8* %10, i8* %11) #4
  %13 = ptrtoint i8* %12 to i32
  store i32 %13, i32* %5, align 4
  %14 = load i32, i32* %5, align 4
  %15 = icmp ne i32 %14, 0
  br i1 %15, label %16, label %30

16:                                               ; preds = %0
  %17 = getelementptr inbounds [256 x i8], [256 x i8]* %2, i64 0, i64 0
  %18 = getelementptr inbounds [256 x i8], [256 x i8]* %3, i64 0, i64 0
  %19 = call i64 @strlen(i8* %18) #4
  %20 = trunc i64 %19 to i32
  %21 = load i32, i32* %5, align 4
  %22 = sext i32 %21 to i64
  %23 = inttoptr i64 %22 to i8*
  %24 = getelementptr inbounds [256 x i8], [256 x i8]* %2, i64 0, i64 0
  %25 = ptrtoint i8* %23 to i64
  %26 = ptrtoint i8* %24 to i64
  %27 = sub i64 %25, %26
  %28 = trunc i64 %27 to i32
  %29 = getelementptr inbounds [256 x i8], [256 x i8]* %4, i64 0, i64 0
  call void @replace(i8* %17, i32 %20, i32 %28, i8* %29)
  br label %33

30:                                               ; preds = %0
  %31 = getelementptr inbounds [256 x i8], [256 x i8]* %2, i64 0, i64 0
  %32 = call i32 (i8*, ...) @printf(i8* getelementptr inbounds ([4 x i8], [4 x i8]* @.str.1, i64 0, i64 0), i8* %31)
  br label %33

33:                                               ; preds = %30, %16
  ret i32 0
}

declare dso_local i32 @__isoc99_scanf(i8*, ...) #1

; Function Attrs: nounwind readonly
declare dso_local i8* @strstr(i8*, i8*) #2

; Function Attrs: noinline nounwind uwtable
define dso_local void @replace(i8* %0, i32 %1, i32 %2, i8* %3) #0 {
  %5 = alloca i8*, align 8
  %6 = alloca i32, align 4
  %7 = alloca i32, align 4
  %8 = alloca i8*, align 8
  %9 = alloca [256 x i8], align 16
  %10 = alloca i8*, align 8
  %11 = alloca i8*, align 8
  %12 = alloca i8*, align 8
  store i8* %0, i8** %5, align 8
  store i32 %1, i32* %6, align 4
  store i32 %2, i32* %7, align 4
  store i8* %3, i8** %8, align 8
  %13 = getelementptr inbounds [256 x i8], [256 x i8]* %9, i64 0, i64 0
  %14 = load i8*, i8** %5, align 8
  %15 = call i8* @strcpy(i8* %13, i8* %14) #5
  %16 = getelementptr inbounds [256 x i8], [256 x i8]* %9, i64 0, i64 0
  %17 = load i32, i32* %7, align 4
  %18 = sext i32 %17 to i64
  %19 = getelementptr inbounds i8, i8* %16, i64 %18
  store i8* %19, i8** %10, align 8
  %20 = load i8*, i8** %8, align 8
  store i8* %20, i8** %11, align 8
  br label %21

21:                                               ; preds = %25, %4
  %22 = load i8*, i8** %11, align 8
  %23 = load i8, i8* %22, align 1
  %24 = icmp ne i8 %23, 0
  br i1 %24, label %25, label %31

25:                                               ; preds = %21
  %26 = load i8*, i8** %11, align 8
  %27 = getelementptr inbounds i8, i8* %26, i32 1
  store i8* %27, i8** %11, align 8
  %28 = load i8, i8* %26, align 1
  %29 = load i8*, i8** %10, align 8
  %30 = getelementptr inbounds i8, i8* %29, i32 1
  store i8* %30, i8** %10, align 8
  store i8 %28, i8* %29, align 1
  br label %21

31:                                               ; preds = %21
  %32 = load i8*, i8** %5, align 8
  %33 = load i32, i32* %7, align 4
  %34 = sext i32 %33 to i64
  %35 = getelementptr inbounds i8, i8* %32, i64 %34
  %36 = load i32, i32* %6, align 4
  %37 = sext i32 %36 to i64
  %38 = getelementptr inbounds i8, i8* %35, i64 %37
  store i8* %38, i8** %12, align 8
  br label %39

39:                                               ; preds = %43, %31
  %40 = load i8*, i8** %12, align 8
  %41 = load i8, i8* %40, align 1
  %42 = icmp ne i8 %41, 0
  br i1 %42, label %43, label %49

43:                                               ; preds = %39
  %44 = load i8*, i8** %12, align 8
  %45 = getelementptr inbounds i8, i8* %44, i32 1
  store i8* %45, i8** %12, align 8
  %46 = load i8, i8* %44, align 1
  %47 = load i8*, i8** %10, align 8
  %48 = getelementptr inbounds i8, i8* %47, i32 1
  store i8* %48, i8** %10, align 8
  store i8 %46, i8* %47, align 1
  br label %39

49:                                               ; preds = %39
  %50 = load i8*, i8** %10, align 8
  store i8 0, i8* %50, align 1
  %51 = load i8*, i8** %5, align 8
  %52 = getelementptr inbounds [256 x i8], [256 x i8]* %9, i64 0, i64 0
  %53 = call i8* @strcpy(i8* %51, i8* %52) #5
  %54 = getelementptr inbounds [256 x i8], [256 x i8]* %9, i64 0, i64 0
  %55 = call i32 (i8*, ...) @printf(i8* getelementptr inbounds ([4 x i8], [4 x i8]* @.str.1, i64 0, i64 0), i8* %54)
  ret void
}

; Function Attrs: nounwind readonly
declare dso_local i64 @strlen(i8*) #2

declare dso_local i32 @printf(i8*, ...) #1

; Function Attrs: noinline nounwind uwtable
define dso_local i32 @isstart(i32 %0, i8* %1, i8* %2) #0 {
  %4 = alloca i32, align 4
  %5 = alloca i32, align 4
  %6 = alloca i8*, align 8
  %7 = alloca i8*, align 8
  %8 = alloca [256 x i8], align 16
  %9 = alloca i8*, align 8
  %10 = alloca i8*, align 8
  %11 = alloca i32, align 4
  store i32 %0, i32* %5, align 4
  store i8* %1, i8** %6, align 8
  store i8* %2, i8** %7, align 8
  %12 = load i8*, i8** %6, align 8
  %13 = load i32, i32* %5, align 4
  %14 = sext i32 %13 to i64
  %15 = getelementptr inbounds i8, i8* %12, i64 %14
  store i8* %15, i8** %9, align 8
  %16 = getelementptr inbounds [256 x i8], [256 x i8]* %8, i64 0, i64 0
  store i8* %16, i8** %10, align 8
  store i32 0, i32* %11, align 4
  br label %17

17:                                               ; preds = %29, %3
  %18 = load i32, i32* %11, align 4
  %19 = sext i32 %18 to i64
  %20 = load i8*, i8** %7, align 8
  %21 = call i64 @strlen(i8* %20) #4
  %22 = icmp ult i64 %19, %21
  br i1 %22, label %23, label %32

23:                                               ; preds = %17
  %24 = load i8*, i8** %9, align 8
  %25 = getelementptr inbounds i8, i8* %24, i32 1
  store i8* %25, i8** %9, align 8
  %26 = load i8, i8* %24, align 1
  %27 = load i8*, i8** %10, align 8
  %28 = getelementptr inbounds i8, i8* %27, i32 1
  store i8* %28, i8** %10, align 8
  store i8 %26, i8* %27, align 1
  br label %29

29:                                               ; preds = %23
  %30 = load i32, i32* %11, align 4
  %31 = add nsw i32 %30, 1
  store i32 %31, i32* %11, align 4
  br label %17

32:                                               ; preds = %17
  %33 = load i8*, i8** %10, align 8
  store i8 0, i8* %33, align 1
  %34 = getelementptr inbounds [256 x i8], [256 x i8]* %8, i64 0, i64 0
  %35 = load i8*, i8** %7, align 8
  %36 = call i32 @strcmp(i8* %34, i8* %35) #4
  %37 = icmp ne i32 %36, 0
  br i1 %37, label %39, label %38

38:                                               ; preds = %32
  store i32 1, i32* %4, align 4
  br label %40

39:                                               ; preds = %32
  store i32 0, i32* %4, align 4
  br label %40

40:                                               ; preds = %39, %38
  %41 = load i32, i32* %4, align 4
  ret i32 %41
}

; Function Attrs: nounwind readonly
declare dso_local i32 @strcmp(i8*, i8*) #2

; Function Attrs: noinline nounwind uwtable
define dso_local i32 @strnl(i8* %0, i8* %1) #0 {
  %3 = alloca i32, align 4
  %4 = alloca i8*, align 8
  %5 = alloca i8*, align 8
  %6 = alloca i32, align 4
  store i8* %0, i8** %4, align 8
  store i8* %1, i8** %5, align 8
  store i32 0, i32* %6, align 4
  br label %7

7:                                                ; preds = %25, %2
  %8 = load i32, i32* %6, align 4
  %9 = sext i32 %8 to i64
  %10 = load i8*, i8** %4, align 8
  %11 = call i64 @strlen(i8* %10) #4
  %12 = load i8*, i8** %5, align 8
  %13 = call i64 @strlen(i8* %12) #4
  %14 = sub i64 %11, %13
  %15 = icmp ule i64 %9, %14
  br i1 %15, label %16, label %28

16:                                               ; preds = %7
  %17 = load i32, i32* %6, align 4
  %18 = load i8*, i8** %4, align 8
  %19 = load i8*, i8** %5, align 8
  %20 = call i32 @isstart(i32 %17, i8* %18, i8* %19)
  %21 = icmp ne i32 %20, 0
  br i1 %21, label %22, label %24

22:                                               ; preds = %16
  %23 = load i32, i32* %6, align 4
  store i32 %23, i32* %3, align 4
  br label %29

24:                                               ; preds = %16
  br label %25

25:                                               ; preds = %24
  %26 = load i32, i32* %6, align 4
  %27 = add nsw i32 %26, 1
  store i32 %27, i32* %6, align 4
  br label %7

28:                                               ; preds = %7
  store i32 -1, i32* %3, align 4
  br label %29

29:                                               ; preds = %28, %22
  %30 = load i32, i32* %3, align 4
  ret i32 %30
}

; Function Attrs: nounwind
declare dso_local i8* @strcpy(i8*, i8*) #3


!llvm.module.flags = !{!0}
!llvm.ident = !{!1}

!0 = !{i32 1, !"wchar_size", i32 4}
!1 = !{!"clang version 10.0.0-4ubuntu1 "}
